target datalayout = "e-m:e-p270:32:32-p271:32:32-p272:64:64-i64:64-i128:128-f80:128-n8:16:32:64-S128"
target triple = "x86_64-pc-linux-gnu"

%struct.Wla_Man_t_ = type { ptr, ptr, ptr, ptr, ptr, ptr, ptr, ptr, ptr, ptr, i32, i32, i32, i32, i32, i32, i64, i64, i64 }
%struct.Bmc3_ThData_t_ = type { ptr, ptr, ptr, i32, i32 }
%struct.Wlc_Par_t_ = type { i32, i32, i32, i32, i32, i32, i32, i32, i32, i32, i32, i32, i32, i32, i32, i32, i32, i32, i32, i32, i32, i32, i32, ptr }

@g_nRunIds = internal global i32 0, align 4

; Function Attrs: nounwind uwtable
define void @Wla_ManConcurrentBmc3(ptr noundef %0, ptr noundef %1, ptr noundef %2) #0 {
  %4 = alloca ptr, align 8
  %5 = alloca ptr, align 8
  %6 = alloca ptr, align 8
  %7 = alloca i32, align 4
  %8 = alloca ptr, align 8
  store ptr %0, ptr %4, align 8
  store ptr %1, ptr %5, align 8
  store ptr %2, ptr %6, align 8
  %9 = call noalias ptr @calloc(i64 noundef 1, i64 noundef 8) #11
  %10 = load ptr, ptr %4, align 8
  %11 = getelementptr inbounds %struct.Wla_Man_t_, ptr %10, i32 0, i32 9
  store ptr %9, ptr %11, align 8
  %12 = call noalias ptr @calloc(i64 noundef 1, i64 noundef 32) #11
  store ptr %12, ptr %8, align 8
  %13 = load ptr, ptr %4, align 8
  %14 = load ptr, ptr %8, align 8
  %15 = getelementptr inbounds %struct.Bmc3_ThData_t_, ptr %14, i32 0, i32 0
  store ptr %13, ptr %15, align 8
  %16 = load ptr, ptr %5, align 8
  %17 = load ptr, ptr %8, align 8
  %18 = getelementptr inbounds %struct.Bmc3_ThData_t_, ptr %17, i32 0, i32 1
  store ptr %16, ptr %18, align 8
  %19 = load ptr, ptr %6, align 8
  %20 = load ptr, ptr %8, align 8
  %21 = getelementptr inbounds %struct.Bmc3_ThData_t_, ptr %20, i32 0, i32 2
  store ptr %19, ptr %21, align 8
  %22 = load volatile i32, ptr @g_nRunIds, align 4
  %23 = load ptr, ptr %8, align 8
  %24 = getelementptr inbounds %struct.Bmc3_ThData_t_, ptr %23, i32 0, i32 3
  store i32 %22, ptr %24, align 8
  %25 = load ptr, ptr %4, align 8
  %26 = getelementptr inbounds %struct.Wla_Man_t_, ptr %25, i32 0, i32 1
  %27 = load ptr, ptr %26, align 8
  %28 = getelementptr inbounds %struct.Wlc_Par_t_, ptr %27, i32 0, i32 20
  %29 = load i32, ptr %28, align 8
  %30 = load ptr, ptr %8, align 8
  %31 = getelementptr inbounds %struct.Bmc3_ThData_t_, ptr %30, i32 0, i32 4
  store i32 %29, ptr %31, align 4
  %32 = load ptr, ptr %4, align 8
  %33 = getelementptr inbounds %struct.Wla_Man_t_, ptr %32, i32 0, i32 9
  %34 = load ptr, ptr %33, align 8
  %35 = load ptr, ptr %8, align 8
  %36 = call i32 @pthread_create(ptr noundef %34, ptr noundef null, ptr noundef @Wla_Bmc3Thread, ptr noundef %35) #8
  store i32 %36, ptr %7, align 4
  ret void
}