; Function Attrs: nounwind uwtable
define void @Wla_ManConcurrentBmc3(ptr noundef initializes((72, 80)) %0, ptr noundef %1, ptr noundef %2) local_unnamed_addr #1 {
  %4 = tail call noalias dereferenceable_or_null(8) ptr @calloc(i64 noundef 1, i64 noundef 8) #14
  %5 = getelementptr inbounds nuw i8, ptr %0, i64 72
  store ptr %4, ptr %5, align 8
  %6 = tail call noalias dereferenceable_or_null(32) ptr @calloc(i64 noundef 1, i64 noundef 32) #14
  store ptr %0, ptr %6, align 8
  %7 = getelementptr inbounds nuw i8, ptr %6, i64 8
  store ptr %1, ptr %7, align 8
  %8 = getelementptr inbounds nuw i8, ptr %6, i64 16
  store ptr %2, ptr %8, align 8
  %9 = load volatile i32, ptr @g_nRunIds, align 4
  %10 = getelementptr inbounds nuw i8, ptr %6, i64 24
  store i32 %9, ptr %10, align 8
  %11 = getelementptr inbounds nuw i8, ptr %0, i64 8
  %12 = load ptr, ptr %11, align 8
  %13 = getelementptr inbounds nuw i8, ptr %12, i64 80
  %14 = load i32, ptr %13, align 8
  %15 = getelementptr inbounds nuw i8, ptr %6, i64 28
  store i32 %14, ptr %15, align 4
  %16 = tail call i32 @pthread_create(ptr noundef %4, ptr noundef null, ptr noundef nonnull @Wla_Bmc3Thread, ptr noundef nonnull %6) #11
  ret void
}